; Function Attrs: mustprogress nounwind uwtable
define void @_ZN5boost6fibers7context8scheduleEPS1_(ptr nocapture noundef nonnull readonly align 8 dereferenceable(232) %0, ptr noundef %1) local_unnamed_addr #3 align 2 {
  %3 = getelementptr inbounds nuw i8, ptr %0, i64 56
  %4 = load ptr, ptr %3, align 8, !tbaa !14
  %5 = getelementptr inbounds nuw i8, ptr %1, i64 56
  %6 = load ptr, ptr %5, align 8, !tbaa !14
  %7 = icmp eq ptr %4, %6
  br i1 %7, label %8, label %9

8:                                                ; preds = %2
  tail call void @_ZN5boost6fibers9scheduler8scheduleEPNS0_7contextE(ptr noundef nonnull align 8 dereferenceable(137) %4, ptr noundef nonnull %1) #8
  br label %10

9:                                                ; preds = %2
  tail call void @_ZN5boost6fibers9scheduler20schedule_from_remoteEPNS0_7contextE(ptr noundef nonnull align 8 dereferenceable(137) %6, ptr noundef nonnull %1) #8
  br label %10

10:                                               ; preds = %9, %8
  ret void
}